Certificate:
    Data:
        Version: 3 (0x2)
        Serial Number: 5 (0x5)
        Signature Algorithm: sha256WithRSAEncryption
        Issuer: C=HR, O=TRONIUS Gaming, CN=TRONIUS Gaming CA
        Validity
            Not Before: Dec  1 18:44:29 2024 GMT
            Not After : Dec  1 18:44:29 2025 GMT
        Subject: C=HR, L=Zagreb, O=TRONIUS Gaming, CN=example.com/emailAddress=test@example.com
        Subject Public Key Info:
            Public Key Algorithm: rsaEncryption
                Public-Key: (4096 bit)
                Modulus:
                    00:ba:d5:3f:82:67:c8:96:af:37:e9:aa:f7:e0:48:
                    e3:d9:aa:25:d7:ee:d3:8a:17:ea:6d:a3:a5:69:56:
                    9e:b4:c0:bd:5b:d6:00:7f:30:87:38:73:00:b4:40:
                    08:da:a6:f3:be:8a:de:45:86:44:eb:40:be:6e:48:
                    70:a4:0a:b0:07:5d:31:20:00:85:b6:02:72:33:99:
                    3c:57:87:1c:8b:84:72:af:18:d3:f9:b9:a9:bd:c0:
                    f0:71:a5:1d:ce:70:f9:a7:46:0d:de:85:4f:ff:b9:
                    bc:3e:3d:96:9a:ee:5d:88:f6:fb:f1:f2:f9:0e:8d:
                    ad:08:db:cc:47:b7:b1:57:b7:9e:bf:94:a1:e8:70:
                    23:ac:0d:0a:c8:e8:27:3f:0e:60:8f:69:f3:a9:87:
                    02:ed:ee:bc:f2:c5:1e:74:1c:0e:44:2a:33:d3:25:
                    12:f7:47:92:68:9b:3d:70:90:44:db:bb:1b:18:4a:
                    f0:15:33:c0:36:a4:61:7b:92:b2:6a:f9:97:47:f8:
                    d7:d9:ae:fd:da:68:32:98:82:df:5f:ba:bf:b3:4c:
                    69:ec:ef:e0:f0:21:41:95:7f:9b:42:93:8b:39:1c:
                    77:a0:75:84:59:05:c3:ca:0d:1d:1b:88:6f:82:8a:
                    75:dc:be:e6:4a:d5:41:20:f3:39:79:76:da:98:6f:
                    c1:f9:4e:e8:03:69:49:d9:8a:31:c7:7c:4a:a1:d8:
                    de:7f:91:8d:3a:62:40:ed:65:47:e7:60:be:88:42:
                    ba:cd:2a:f4:aa:ae:0a:e6:ee:d9:9d:5d:e9:89:a5:
                    8d:32:4d:4e:7c:4f:93:7b:96:7c:6c:84:0b:7c:58:
                    7c:74:d9:e5:3e:54:2a:4e:c9:cf:07:67:84:a0:4a:
                    69:1d:c9:27:d4:03:d6:af:97:c0:82:5b:26:a6:9b:
                    98:0d:f9:f3:b5:ff:79:ef:04:31:6f:c5:af:21:12:
                    71:29:07:10:27:e8:23:49:8b:b8:ef:40:e4:38:9a:
                    51:c7:7f:4b:39:22:3a:ab:c6:e4:90:f6:44:9e:9f:
                    1f:67:4f:99:4a:c0:eb:6c:b0:4d:e3:1b:78:0a:fe:
                    1e:22:0e:fe:63:dd:0b:00:57:52:38:8c:61:0e:a7:
                    d4:33:1f:fb:27:a1:69:26:3f:00:1d:45:99:83:a4:
                    56:4a:63:9a:ef:6b:6f:a6:8e:6a:b2:02:45:10:51:
                    fa:e0:98:80:2c:5a:d7:df:40:36:dd:89:7f:4d:e7:
                    29:c5:ec:1e:fb:01:9c:f9:fb:86:3b:c3:7e:86:6a:
                    95:d1:2a:db:d3:6e:76:38:0e:10:f3:f1:91:81:a9:
                    42:c2:4f:78:fa:1d:00:62:22:3c:de:cd:9b:22:c7:
                    7a:ea:9f
                Exponent: 65537 (0x10001)
        X509v3 extensions:
            X509v3 Subject Key Identifier: 
                CA:DA:4E:96:E7:69:E0:4F:F9:2F:63:E3:7C:08:49:19:48:96:71:D1
            X509v3 Authority Key Identifier: 
                DirName:/C=HR/O=TRONIUS Gaming/CN=TRONIUS Gaming CA
                serial:5A:6D:98:95:0B:BF:B8:96:E3:44:7A:D3:16:4D:8E:78:6F:7E:78:17
            X509v3 Basic Constraints: 
                CA:FALSE
            X509v3 Key Usage: 
                Digital Signature, Key Encipherment
            X509v3 Subject Alternative Name: 
                DNS:myservice.example.com
            Netscape Comment: 
                OpenSSL Generated Certificate
    Signature Algorithm: sha256WithRSAEncryption
    Signature Value:
        2b:90:6b:9b:8f:bc:40:ae:d7:20:b0:cd:41:aa:d4:1e:7b:e8:
        f4:7e:3d:fd:c4:3f:b9:c6:d9:e4:85:ee:ba:4a:88:d8:ce:36:
        d8:3c:60:45:3d:ec:20:cc:3c:03:99:2a:6f:2f:61:ff:a7:79:
        81:0f:52:7a:20:69:5a:66:52:8d:cf:4f:79:3c:98:05:77:38:
        39:e2:f0:ee:07:90:7f:cd:7e:e9:a4:14:03:ed:c0:6f:b0:f9:
        3a:83:37:46:38:9a:b1:bf:9e:c5:d4:16:c4:c6:12:55:13:4a:
        73:ef:62:20:f3:4d:6e:02:ce:2d:db:54:85:15:be:d1:e8:40:
        1f:2a:08:a5:8e:be:0d:93:42:61:00:b5:22:38:d7:1e:c2:f7:
        9c:c2:de:1b:de:7b:77:db:a1:f8:6f:fe:de:15:97:df:b2:66:
        89:5b:b9:de:fb:51:cb:b9:ac:fe:76:f1:92:e2:00:83:26:d7:
        df:3b:b6:f5:74:ce:4c:c8:c4:56:8b:e4:6b:9f:0b:d1:b1:bb:
        fa:2e:eb:65:85:d9:09:8b:5a:ac:10:5d:06:d7:23:72:b2:7e:
        28:de:94:80:c7:8d:f2:39:46:78:b5:97:4d:7b:d4:a0:0c:ec:
        ac:65:b9:9c:47:27:14:04:ab:59:be:be:1b:df:80:2b:48:d5:
        ad:69:98:38:80:7c:c9:80:cf:cd:91:19:39:b5:61:fa:be:19:
        c1:7d:b2:05:f2:a6:c0:e2:88:0a:fb:5e:64:a3:e2:25:98:34:
        c1:2a:35:ff:09:99:65:c6:16:c0:fa:eb:88:70:56:5e:f3:9b:
        2b:f3:95:58:a9:1a:1f:cc:a4:b0:20:24:99:f4:fc:02:46:0d:
        39:4c:11:ec:e5:ff:23:47:02:77:1d:44:74:1c:e6:45:fd:66:
        cf:12:5f:9b:d4:f4:db:51:ea:e8:7d:99:de:1d:84:db:70:59:
        62:44:0b:a0:00:44:fa:6a:e4:8e:4b:65:05:ba:cd:74:26:b8:
        ae:8b:d5:fa:fa:4b:26:5d:24:21:b6:4b:5a:81:55:38:b8:80:
        19:3f:b1:4c:0b:3c:6c:7c:b8:1a:dc:a9:30:2c:21:0b:f4:33:
        8e:e4:7d:ab:2d:cf:64:d6:8a:3b:ff:ef:aa:26:1e:0a:44:99:
        b9:4c:e8:14:29:c7:6f:71:f1:c4:b9:13:3c:6b:ba:7b:97:11:
        ba:27:9c:67:3a:81:e9:7d:73:dc:73:81:66:b0:21:89:ff:4d:
        08:25:41:9d:22:10:9f:9b:ba:ad:81:42:1c:42:dd:e4:98:6a:
        b3:3a:8f:4b:24:87:ac:b2:46:62:66:34:be:05:a2:f3:ec:7e:
        d9:bc:43:47:1c:6e:97:17
-----BEGIN CERTIFICATE-----
MIIGHzCCBAegAwIBAgIBBTANBgkqhkiG9w0BAQsFADBCMQswCQYDVQQGEwJIUjEX
MBUGA1UECgwOVFJPTklVUyBHYW1pbmcxGjAYBgNVBAMMEVRST05JVVMgR2FtaW5n
IENBMB4XDTI0MTIwMTE4NDQyOVoXDTI1MTIwMTE4NDQyOVowbjELMAkGA1UEBhMC
SFIxDzANBgNVBAcMBlphZ3JlYjEXMBUGA1UECgwOVFJPTklVUyBHYW1pbmcxFDAS
BgNVBAMMC2V4YW1wbGUuY29tMR8wHQYJKoZIhvcNAQkBFhB0ZXN0QGV4YW1wbGUu
Y29tMIICIjANBgkqhkiG9w0BAQEFAAOCAg8AMIICCgKCAgEAutU/gmfIlq836ar3
4Ejj2aol1+7TihfqbaOlaVaetMC9W9YAfzCHOHMAtEAI2qbzvoreRYZE60C+bkhw
pAqwB10xIACFtgJyM5k8V4cci4RyrxjT+bmpvcDwcaUdznD5p0YN3oVP/7m8Pj2W
mu5diPb78fL5Do2tCNvMR7exV7eev5Sh6HAjrA0KyOgnPw5gj2nzqYcC7e688sUe
dBwORCoz0yUS90eSaJs9cJBE27sbGErwFTPANqRhe5KyavmXR/jX2a792mgymILf
X7q/s0xp7O/g8CFBlX+bQpOLORx3oHWEWQXDyg0dG4hvgop13L7mStVBIPM5eXba
mG/B+U7oA2lJ2Yoxx3xKodjef5GNOmJA7WVH52C+iEK6zSr0qq4K5u7ZnV3piaWN
Mk1OfE+Te5Z8bIQLfFh8dNnlPlQqTsnPB2eEoEppHckn1APWr5fAglsmppuYDfnz
tf957wQxb8WvIRJxKQcQJ+gjSYu470DkOJpRx39LOSI6q8bkkPZEnp8fZ0+ZSsDr
bLBN4xt4Cv4eIg7+Y90LAFdSOIxhDqfUMx/7J6FpJj8AHUWZg6RWSmOa72tvpo5q
sgJFEFH64JiALFrX30A23Yl/Tecpxewe+wGc+fuGO8N+hmqV0Srb0252OA4Q8/GR
galCwk94+h0AYiI83s2bIsd66p8CAwEAAaOB8zCB8DAdBgNVHQ4EFgQUytpOludp
4E/5L2PjfAhJGUiWcdEwZwYDVR0jBGAwXqFGpEQwQjELMAkGA1UEBhMCSFIxFzAV
BgNVBAoMDlRST05JVVMgR2FtaW5nMRowGAYDVQQDDBFUUk9OSVVTIEdhbWluZyBD
QYIUWm2YlQu/uJbjRHrTFk2OeG9+eBcwCQYDVR0TBAIwADALBgNVHQ8EBAMCBaAw
IAYDVR0RBBkwF4IVbXlzZXJ2aWNlLmV4YW1wbGUuY29tMCwGCWCGSAGG+EIBDQQf
Fh1PcGVuU1NMIEdlbmVyYXRlZCBDZXJ0aWZpY2F0ZTANBgkqhkiG9w0BAQsFAAOC
AgEAK5Brm4+8QK7XILDNQarUHnvo9H49/cQ/ucbZ5IXuukqI2M422DxgRT3sIMw8
A5kqby9h/6d5gQ9SeiBpWmZSjc9PeTyYBXc4OeLw7geQf81+6aQUA+3Ab7D5OoM3
Rjiasb+exdQWxMYSVRNKc+9iIPNNbgLOLdtUhRW+0ehAHyoIpY6+DZNCYQC1IjjX
HsL3nMLeG957d9uh+G/+3hWX37JmiVu53vtRy7ms/nbxkuIAgybX3zu29XTOTMjE
Vovka58L0bG7+i7rZYXZCYtarBBdBtcjcrJ+KN6UgMeN8jlGeLWXTXvUoAzsrGW5
nEcnFASrWb6+G9+AK0jVrWmYOIB8yYDPzZEZObVh+r4ZwX2yBfKmwOKICvteZKPi
JZg0wSo1/wmZZcYWwPrriHBWXvObK/OVWKkaH8yksCAkmfT8AkYNOUwR7OX/I0cC
dx1EdBzmRf1mzxJfm9T021Hq6H2Z3h2E23BZYkQLoABE+mrkjktlBbrNdCa4rovV
+vpLJl0kIbZLWoFVOLiAGT+xTAs8bHy4GtypMCwhC/QzjuR9qy3PZNaKO//vqiYe
CkSZuUzoFCnHb3HxxLkTPGu6e5cRuiecZzqB6X1z3HOBZrAhif9NCCVBnSIQn5u6
rYFCHELd5JhqszqPSySHrLJGYmY0vgWi8+x+2bxDRxxulxc=
-----END CERTIFICATE-----
